target datalayout = "e-m:e-p270:32:32-p271:32:32-p272:64:64-i64:64-i128:128-f80:128-n8:16:32:64-S128"
target triple = "x86_64-pc-linux-gnu"

%union.pthread_mutex_t = type { %struct.__pthread_mutex_s }
%struct.__pthread_mutex_s = type { i32, i32, i32, i32, i32, i16, i16, %struct.__pthread_internal_list }
%struct.__pthread_internal_list = type { ptr, ptr }
%struct.slurm_conf_t = type { i64, ptr, i16, ptr, ptr, ptr, ptr, ptr, i16, ptr, ptr, ptr, ptr, ptr, ptr, ptr, i16, ptr, ptr, ptr, ptr, i16, ptr, ptr, ptr, i64, ptr, ptr, ptr, ptr, i16, ptr, ptr, i16, i32, ptr, i32, ptr, i32, i32, ptr, ptr, i64, i64, ptr, i16, i16, ptr, i32, i32, ptr, i32, ptr, i32, i16, i16, i16, ptr, i16, i16, ptr, ptr, i32, i16, i16, ptr, i32, i16, ptr, ptr, ptr, ptr, i16, ptr, ptr, ptr, ptr, i32, ptr, ptr, ptr, ptr, i16, i16, ptr, i32, i32, i32, i16, i16, ptr, ptr, i16, ptr, ptr, i32, i32, i32, i32, i32, i64, i32, i32, i16, ptr, ptr, i32, ptr, ptr, ptr, i16, i32, ptr, ptr, i16, ptr, ptr, i32, i16, ptr, ptr, ptr, ptr, i32, i32, i16, i16, i32, ptr, i16, ptr, i32, i32, i32, i32, i32, i32, ptr, i16, ptr, ptr, i32, i16, ptr, i32, i16, i16, ptr, ptr, ptr, i16, ptr, ptr, ptr, ptr, i16, i16, ptr, i16, ptr, i16, ptr, i16, ptr, i16, ptr, ptr, ptr, ptr, i16, ptr, ptr, ptr, i32, ptr, i32, ptr, ptr, i16, ptr, ptr, i32, i16, ptr, ptr, i16, i16, ptr, i16, ptr, ptr, ptr, i32, ptr, i16, i16, ptr, ptr, ptr, ptr, ptr, ptr, ptr, ptr, i16, i32, i16, ptr, ptr, ptr, ptr, i32, ptr, ptr, ptr, i16, ptr, ptr, ptr, i16, ptr, i16, ptr, i16, i16, ptr }
%struct.slurm_jobacct_gather_ops = type { ptr, ptr, ptr }

@.str = private unnamed_addr constant [15 x i8] c"jobacct_gather\00", align 1
@g_context_lock = internal global %union.pthread_mutex_t zeroinitializer, align 8
@.str.1 = private unnamed_addr constant [29 x i8] c"%s: pthread_mutex_lock(): %m\00", align 1
@__func__.jobacct_gather_init = private unnamed_addr constant [20 x i8] c"jobacct_gather_init\00", align 1
@plugin_inited = internal global i32 0, align 4
@slurmdbd_conf = external global ptr, align 8
@slurm_conf = external global %struct.slurm_conf_t, align 8
@ops = internal global %struct.slurm_jobacct_gather_ops zeroinitializer, align 8
@syms = internal global [3 x ptr] [ptr @.str.42, ptr @.str.43, ptr @.str.44], align 16
@g_context = internal global ptr null, align 8
@.str.2 = private unnamed_addr constant [32 x i8] c"cannot create %s context for %s\00", align 1
@init_run_mutex = internal global %union.pthread_mutex_t zeroinitializer, align 8
@.str.3 = private unnamed_addr constant [31 x i8] c"%s: pthread_mutex_unlock(): %m\00", align 1
@.str.4 = private unnamed_addr constant [15 x i8] c"proctrack/pgid\00", align 1
@.str.5 = private unnamed_addr constant [133 x i8] c"We will use a much slower algorithm with proctrack/pgid, use Proctracktype=proctrack/linuxproc or some other proctrack when using %s\00", align 1
@.str.6 = private unnamed_addr constant [189 x i8] c"Even though we are collecting accounting information you have asked for it not to be stored (no AccountingStorageType set). If this is not what you have in mind you will need to change it.\00", align 1

; Function Attrs: nounwind uwtable
define dso_local i32 @jobacct_gather_init() #0 {
  %1 = alloca ptr, align 8
  %2 = alloca i32, align 4
  %3 = alloca i32, align 4
  %4 = alloca i32, align 4
  %5 = alloca i32, align 4
  %6 = alloca i32, align 4
  call void @llvm.lifetime.start.p0(i64 8, ptr %1) #8
  store ptr @.str, ptr %1, align 8
  call void @llvm.lifetime.start.p0(i64 4, ptr %2) #8
  store i32 0, ptr %2, align 4
  br label %7

7:                                                ; preds = %0
  call void @llvm.lifetime.start.p0(i64 4, ptr %3) #8
  %8 = call i32 @pthread_mutex_lock(ptr noundef @g_context_lock) #8
  store i32 %8, ptr %3, align 4
  %9 = load i32, ptr %3, align 4
  %10 = icmp ne i32 %9, 0
  br i1 %10, label %11, label %14

11:                                               ; preds = %7
  %12 = load i32, ptr %3, align 4
  %13 = call ptr @__errno_location() #9
  store i32 %12, ptr %13, align 4
  call void (ptr, ...) @fatal_abort(ptr noundef @.str.1, ptr noundef @__func__.jobacct_gather_init) #10
  unreachable

14:                                               ; preds = %7
  call void @llvm.lifetime.end.p0(i64 4, ptr %3) #8
  br label %15

15:                                               ; preds = %14
  br label %16

16:                                               ; preds = %15
  %17 = load i32, ptr @plugin_inited, align 4
  %18 = icmp ne i32 %17, 0
  br i1 %18, label %19, label %20

19:                                               ; preds = %16
  br label %71

20:                                               ; preds = %16
  %21 = load ptr, ptr @slurmdbd_conf, align 8
  %22 = icmp ne ptr %21, null
  br i1 %22, label %26, label %23

23:                                               ; preds = %20
  %24 = load ptr, ptr getelementptr inbounds nuw (%struct.slurm_conf_t, ptr @slurm_conf, i32 0, i32 70), align 8
  %25 = icmp ne ptr %24, null
  br i1 %25, label %27, label %26

26:                                               ; preds = %23, %20
  store i32 1, ptr @plugin_inited, align 4
  br label %71

27:                                               ; preds = %23
  %28 = load ptr, ptr %1, align 8
  %29 = load ptr, ptr getelementptr inbounds nuw (%struct.slurm_conf_t, ptr @slurm_conf, i32 0, i32 70), align 8
  %30 = call ptr @plugin_context_create(ptr noundef %28, ptr noundef %29, ptr noundef @ops, ptr noundef @syms, i64 noundef 24)
  store ptr %30, ptr @g_context, align 8
  %31 = load ptr, ptr @g_context, align 8
  %32 = icmp ne ptr %31, null
  br i1 %32, label %37, label %33

33:                                               ; preds = %27
  %34 = load ptr, ptr %1, align 8
  %35 = load ptr, ptr getelementptr inbounds nuw (%struct.slurm_conf_t, ptr @slurm_conf, i32 0, i32 70), align 8
  %36 = call i32 (ptr, ...) @error(ptr noundef @.str.2, ptr noundef %34, ptr noundef %35)
  store i32 -1, ptr %2, align 4
  store i32 0, ptr @plugin_inited, align 4
  br label %71

37:                                               ; preds = %27
  br label %38

38:                                               ; preds = %37
  call void @llvm.lifetime.start.p0(i64 4, ptr %4) #8
  %39 = call i32 @pthread_mutex_lock(ptr noundef @init_run_mutex) #8
  store i32 %39, ptr %4, align 4
  %40 = load i32, ptr %4, align 4
  %41 = icmp ne i32 %40, 0
  br i1 %41, label %42, label %45

42:                                               ; preds = %38
  %43 = load i32, ptr %4, align 4
  %44 = call ptr @__errno_location() #9
  store i32 %43, ptr %44, align 4
  call void (ptr, ...) @fatal_abort(ptr noundef @.str.1, ptr noundef @__func__.jobacct_gather_init) #10
  unreachable

45:                                               ; preds = %38
  call void @llvm.lifetime.end.p0(i64 4, ptr %4) #8
  br label %46

46:                                               ; preds = %45
  br label %47

47:                                               ; preds = %46
  store i32 2, ptr @plugin_inited, align 4
  br label %48

48:                                               ; preds = %47
  call void @llvm.lifetime.start.p0(i64 4, ptr %5) #8
  %49 = call i32 @pthread_mutex_unlock(ptr noundef @init_run_mutex) #8
  store i32 %49, ptr %5, align 4
  %50 = load i32, ptr %5, align 4
  %51 = icmp ne i32 %50, 0
  br i1 %51, label %52, label %55

52:                                               ; preds = %48
  %53 = load i32, ptr %5, align 4
  %54 = call ptr @__errno_location() #9
  store i32 %53, ptr %54, align 4
  call void (ptr, ...) @fatal_abort(ptr noundef @.str.3, ptr noundef @__func__.jobacct_gather_init) #10
  unreachable

55:                                               ; preds = %48
  call void @llvm.lifetime.end.p0(i64 4, ptr %5) #8
  br label %56

56:                                               ; preds = %55
  br label %57

57:                                               ; preds = %56
  %58 = call zeroext i1 @running_in_slurmctld()
  br i1 %58, label %60, label %59

59:                                               ; preds = %57
  br label %71

60:                                               ; preds = %57
  %61 = load ptr, ptr getelementptr inbounds nuw (%struct.slurm_conf_t, ptr @slurm_conf, i32 0, i32 139), align 8
  %62 = call i32 @xstrcasecmp(ptr noundef %61, ptr noundef @.str.4)
  %63 = icmp ne i32 %62, 0
  br i1 %63, label %66, label %64

64:                                               ; preds = %60
  %65 = load ptr, ptr getelementptr inbounds nuw (%struct.slurm_conf_t, ptr @slurm_conf, i32 0, i32 70), align 8
  call void (ptr, ...) @warning(ptr noundef @.str.5, ptr noundef %65)
  br label %66

66:                                               ; preds = %64, %60
  %67 = load ptr, ptr getelementptr inbounds nuw (%struct.slurm_conf_t, ptr @slurm_conf, i32 0, i32 9), align 8
  %68 = icmp ne ptr %67, null
  br i1 %68, label %70, label %69

69:                                               ; preds = %66
  call void (ptr, ...) @warning(ptr noundef @.str.6)
  br label %70

70:                                               ; preds = %69, %66
  br label %71

71:                                               ; preds = %70, %59, %33, %26, %19
  br label %72

72:                                               ; preds = %71
  call void @llvm.lifetime.start.p0(i64 4, ptr %6) #8
  %73 = call i32 @pthread_mutex_unlock(ptr noundef @g_context_lock) #8
  store i32 %73, ptr %6, align 4
  %74 = load i32, ptr %6, align 4
  %75 = icmp ne i32 %74, 0
  br i1 %75, label %76, label %79

76:                                               ; preds = %72
  %77 = load i32, ptr %6, align 4
  %78 = call ptr @__errno_location() #9
  store i32 %77, ptr %78, align 4
  call void (ptr, ...) @fatal_abort(ptr noundef @.str.3, ptr noundef @__func__.jobacct_gather_init) #10
  unreachable

79:                                               ; preds = %72
  call void @llvm.lifetime.end.p0(i64 4, ptr %6) #8
  br label %80

80:                                               ; preds = %79
  br label %81

81:                                               ; preds = %80
  %82 = load i32, ptr %2, align 4
  call void @llvm.lifetime.end.p0(i64 4, ptr %2) #8
  call void @llvm.lifetime.end.p0(i64 8, ptr %1) #8
  ret i32 %82
}